(dp0
S'show_imports'
p1
I0
sS'prj_name'
p2
S'SpeakEasy'
p3
sS'docformat'
p4
S'epytext'
p5
sS'inheritance'
p6
S'grouped'
p7
sS'help'
p8
NsS'modules'
p9
(S'/home/paepcke/fuerte/stacks/speakeasy/src/speakeasy/music_player.py'
p10
S'/home/paepcke/fuerte/stacks/speakeasy/src/speakeasy/speakeasy_controller.py'
p11
S'/home/paepcke/fuerte/stacks/speakeasy/src/speakeasy/speakeasy_persistence.py'
p12
S'/home/paepcke/fuerte/stacks/speakeasy/src/speakeasy/text_to_speech.py'
p13
S'/home/paepcke/fuerte/stacks/speakeasy/src/speakeasy/robot_interaction.py'
p14
S'/home/paepcke/fuerte/stacks/speakeasy/src/utilities/speakeasy_utils.py'
p15
S'/home/paepcke/fuerte/stacks/speakeasy/node/speakeasy_node.py'
p16
tp17
sS'private'
p18
I1
sS'prj_url'
p19
NsS'introspect_or_parse'
p20
S'both'
p21
sS'frames'
p22
I1
sS'css'
p23
S'default'
p24
sS'target'
p25
S'/home/paepcke/fuerte/stacks/speakeasy/doc'
p26
s.